target datalayout = "e-m:e-p270:32:32-p271:32:32-p272:64:64-i64:64-i128:128-f80:128-n8:16:32:64-S128"
target triple = "x86_64-pc-linux-gnu"

%struct.AVFormatContext = type { ptr, ptr, ptr, ptr, ptr, i32, i32, ptr, i32, ptr, i32, ptr, ptr, i64, i64, i64, i32, i32, i32, i64, i64, ptr, i32, i32, ptr, i32, i32, i32, i32, ptr, i64, i32, i32, %struct.AVIOInterruptCB, i32, i32, i32, i32, i64, i32, i32, i32, i32, i32, i32, i32, i32, i32, i32, i32, i32, i64, i32, i32, i32, i32, i32, ptr, ptr, ptr, ptr, i32, ptr, ptr, ptr, ptr, i32, ptr, ptr, i64, ptr, ptr, ptr, i64 }
%struct.AVIOInterruptCB = type { ptr, ptr }
%struct.AVPacket = type { ptr, i64, i64, ptr, i32, i32, i32, ptr, i32, i64, i64, ptr, ptr, %struct.AVRational }
%struct.AVRational = type { i32, i32 }
%struct.AVStream = type { ptr, i32, i32, ptr, ptr, %struct.AVRational, i64, i64, i64, i32, i32, %struct.AVRational, ptr, %struct.AVRational, %struct.AVPacket, i32, %struct.AVRational, i32 }
%struct.MXFContext = type { ptr, i64, i32, %struct.AVRational, i32, ptr, i32, i64, i8, i32, ptr, i32, i32, i64, %struct.AVTimecode, ptr, i32, i32, i32, i64, i32, [16 x i8], i32, i32, i32, %struct.AVRational, i32, i32, i32, [127 x i8], %struct.MXFStreamContext }
%struct.AVTimecode = type { i32, i32, %struct.AVRational, i32 }
%struct.MXFStreamContext = type { i64, [16 x i8], i32, ptr, ptr, i32, i32, i32, i32, i32, i32, i32, i32, i32, %struct.AVRational, i32, i32, i32, i32, i32, i32, i32, i32, i32, i32, %struct.j2k_info_t }
%struct.j2k_info_t = type { i16, i16, i32, i32, i32, i32, i32, i32, i32, i32, [12 x i8] }
%struct.AVCodecParameters = type { i32, i32, i32, ptr, i32, ptr, i32, i32, i64, i32, i32, i32, i32, i32, i32, %struct.AVRational, %struct.AVRational, i32, i32, i32, i32, i32, i32, i32, %struct.AVChannelLayout, i32, i32, i32, i32, i32, i32 }
%struct.AVChannelLayout = type { i32, i32, %union.anon.0, ptr }
%union.anon.0 = type { i64 }

@.str.79 = private unnamed_addr constant [128 x i8] c"the number of audio channels shall be 4 or 8 : the output will not comply to MXF D-10 specs, use -d10_channelcount to fix this\0A\00", align 1
@.str.80 = private unnamed_addr constant [86 x i8] c"d10_channelcount < actual number of audio channels : some channels will be discarded\0A\00", align 1
@.str.81 = private unnamed_addr constant [88 x i8] c"d10_channelcount shall be set to 4 or 8 : the output will not comply to MXF D-10 specs\0A\00", align 1

; Function Attrs: nounwind uwtable
define internal i64 @mxf_write_generic_sound_common(ptr noundef %0, ptr noundef %1, ptr noundef %2) #0 {
  %4 = alloca ptr, align 8
  %5 = alloca ptr, align 8
  %6 = alloca ptr, align 8
  %7 = alloca ptr, align 8
  %8 = alloca ptr, align 8
  %9 = alloca i32, align 4
  %10 = alloca i64, align 8
  store ptr %0, ptr %4, align 8, !tbaa !4
  store ptr %1, ptr %5, align 8, !tbaa !38
  store ptr %2, ptr %6, align 8, !tbaa !151
  call void @llvm.lifetime.start.p0(i64 8, ptr %7) #13
  %11 = load ptr, ptr %4, align 8, !tbaa !4
  %12 = getelementptr inbounds nuw %struct.AVFormatContext, ptr %11, i32 0, i32 4
  %13 = load ptr, ptr %12, align 8, !tbaa !30
  store ptr %13, ptr %7, align 8, !tbaa !31
  call void @llvm.lifetime.start.p0(i64 8, ptr %8) #13
  %14 = load ptr, ptr %4, align 8, !tbaa !4
  %15 = getelementptr inbounds nuw %struct.AVFormatContext, ptr %14, i32 0, i32 3
  %16 = load ptr, ptr %15, align 8, !tbaa !11
  store ptr %16, ptr %8, align 8, !tbaa !28
  call void @llvm.lifetime.start.p0(i64 4, ptr %9) #13
  %17 = load ptr, ptr %8, align 8, !tbaa !28
  %18 = getelementptr inbounds nuw %struct.MXFContext, ptr %17, i32 0, i32 1
  %19 = load i64, ptr %18, align 8, !tbaa !77
  %20 = icmp ne i64 %19, 0
  %21 = xor i1 %20, true
  %22 = zext i1 %21 to i32
  store i32 %22, ptr %9, align 4, !tbaa !57
  call void @llvm.lifetime.start.p0(i64 8, ptr %10) #13
  %23 = load ptr, ptr %4, align 8, !tbaa !4
  %24 = load ptr, ptr %5, align 8, !tbaa !38
  %25 = load ptr, ptr %6, align 8, !tbaa !151
  %26 = call i64 @mxf_write_generic_desc(ptr noundef %23, ptr noundef %24, ptr noundef %25)
  store i64 %26, ptr %10, align 8, !tbaa !80
  %27 = load ptr, ptr %4, align 8, !tbaa !4
  %28 = getelementptr inbounds nuw %struct.AVFormatContext, ptr %27, i32 0, i32 2
  %29 = load ptr, ptr %28, align 8, !tbaa !53
  %30 = icmp eq ptr %29, @ff_mxf_opatom_muxer
  br i1 %30, label %31, label %42

31:                                               ; preds = %3
  %32 = load ptr, ptr %4, align 8, !tbaa !4
  call void @mxf_write_local_tag(ptr noundef %32, i32 noundef 8, i32 noundef 12290)
  %33 = load ptr, ptr %7, align 8, !tbaa !31
  %34 = load ptr, ptr %8, align 8, !tbaa !28
  %35 = getelementptr inbounds nuw %struct.MXFContext, ptr %34, i32 0, i32 19
  %36 = load i64, ptr %35, align 8, !tbaa !68
  %37 = load ptr, ptr %8, align 8, !tbaa !28
  %38 = getelementptr inbounds nuw %struct.MXFContext, ptr %37, i32 0, i32 17
  %39 = load i32, ptr %38, align 4, !tbaa !55
  %40 = sext i32 %39 to i64
  %41 = udiv i64 %36, %40
  call void @avio_wb64(ptr noundef %33, i64 noundef %41)
  br label %42

42:                                               ; preds = %31, %3
  %43 = load ptr, ptr %4, align 8, !tbaa !4
  call void @mxf_write_local_tag(ptr noundef %43, i32 noundef 1, i32 noundef 15618)
  %44 = load ptr, ptr %7, align 8, !tbaa !31
  call void @avio_w8(ptr noundef %44, i32 noundef 1)
  %45 = load ptr, ptr %4, align 8, !tbaa !4
  call void @mxf_write_local_tag(ptr noundef %45, i32 noundef 8, i32 noundef 15619)
  %46 = load ptr, ptr %7, align 8, !tbaa !31
  %47 = load ptr, ptr %5, align 8, !tbaa !38
  %48 = getelementptr inbounds nuw %struct.AVStream, ptr %47, i32 0, i32 3
  %49 = load ptr, ptr %48, align 8, !tbaa !58
  %50 = getelementptr inbounds nuw %struct.AVCodecParameters, ptr %49, i32 0, i32 25
  %51 = load i32, ptr %50, align 8, !tbaa !122
  call void @avio_wb32(ptr noundef %46, i32 noundef %51)
  %52 = load ptr, ptr %7, align 8, !tbaa !31
  call void @avio_wb32(ptr noundef %52, i32 noundef 1)
  %53 = load ptr, ptr %4, align 8, !tbaa !4
  %54 = getelementptr inbounds nuw %struct.AVFormatContext, ptr %53, i32 0, i32 2
  %55 = load ptr, ptr %54, align 8, !tbaa !53
  %56 = icmp eq ptr %55, @ff_mxf_d10_muxer
  br i1 %56, label %57, label %60

57:                                               ; preds = %42
  %58 = load ptr, ptr %4, align 8, !tbaa !4
  call void @mxf_write_local_tag(ptr noundef %58, i32 noundef 1, i32 noundef 15620)
  %59 = load ptr, ptr %7, align 8, !tbaa !31
  call void @avio_w8(ptr noundef %59, i32 noundef 0)
  br label %60

60:                                               ; preds = %57, %42
  %61 = load ptr, ptr %4, align 8, !tbaa !4
  call void @mxf_write_local_tag(ptr noundef %61, i32 noundef 4, i32 noundef 15623)
  %62 = load ptr, ptr %8, align 8, !tbaa !28
  %63 = getelementptr inbounds nuw %struct.MXFContext, ptr %62, i32 0, i32 22
  %64 = load i32, ptr %63, align 4, !tbaa !291
  %65 = icmp eq i32 %64, -1
  br i1 %65, label %66, label %100

66:                                               ; preds = %60
  %67 = load i32, ptr %9, align 4, !tbaa !57
  %68 = icmp ne i32 %67, 0
  br i1 %68, label %69, label %92

69:                                               ; preds = %66
  %70 = load ptr, ptr %4, align 8, !tbaa !4
  %71 = getelementptr inbounds nuw %struct.AVFormatContext, ptr %70, i32 0, i32 2
  %72 = load ptr, ptr %71, align 8, !tbaa !53
  %73 = icmp eq ptr %72, @ff_mxf_d10_muxer
  br i1 %73, label %74, label %92

74:                                               ; preds = %69
  %75 = load ptr, ptr %5, align 8, !tbaa !38
  %76 = getelementptr inbounds nuw %struct.AVStream, ptr %75, i32 0, i32 3
  %77 = load ptr, ptr %76, align 8, !tbaa !58
  %78 = getelementptr inbounds nuw %struct.AVCodecParameters, ptr %77, i32 0, i32 24
  %79 = getelementptr inbounds nuw %struct.AVChannelLayout, ptr %78, i32 0, i32 1
  %80 = load i32, ptr %79, align 4, !tbaa !123
  %81 = icmp ne i32 %80, 4
  br i1 %81, label %82, label %92

82:                                               ; preds = %74
  %83 = load ptr, ptr %5, align 8, !tbaa !38
  %84 = getelementptr inbounds nuw %struct.AVStream, ptr %83, i32 0, i32 3
  %85 = load ptr, ptr %84, align 8, !tbaa !58
  %86 = getelementptr inbounds nuw %struct.AVCodecParameters, ptr %85, i32 0, i32 24
  %87 = getelementptr inbounds nuw %struct.AVChannelLayout, ptr %86, i32 0, i32 1
  %88 = load i32, ptr %87, align 4, !tbaa !123
  %89 = icmp ne i32 %88, 8
  br i1 %89, label %90, label %92

90:                                               ; preds = %82
  %91 = load ptr, ptr %4, align 8, !tbaa !4
  call void (ptr, i32, ptr, ...) @av_log(ptr noundef %91, i32 noundef 24, ptr noundef @.str.79)
  br label %92

92:                                               ; preds = %90, %82, %74, %69, %66
  %93 = load ptr, ptr %7, align 8, !tbaa !31
  %94 = load ptr, ptr %5, align 8, !tbaa !38
  %95 = getelementptr inbounds nuw %struct.AVStream, ptr %94, i32 0, i32 3
  %96 = load ptr, ptr %95, align 8, !tbaa !58
  %97 = getelementptr inbounds nuw %struct.AVCodecParameters, ptr %96, i32 0, i32 24
  %98 = getelementptr inbounds nuw %struct.AVChannelLayout, ptr %97, i32 0, i32 1
  %99 = load i32, ptr %98, align 4, !tbaa !123
  call void @avio_wb32(ptr noundef %93, i32 noundef %99)
  br label %150

100:                                              ; preds = %60
  %101 = load ptr, ptr %4, align 8, !tbaa !4
  %102 = getelementptr inbounds nuw %struct.AVFormatContext, ptr %101, i32 0, i32 2
  %103 = load ptr, ptr %102, align 8, !tbaa !53
  %104 = icmp eq ptr %103, @ff_mxf_d10_muxer
  br i1 %104, label %105, label %141

105:                                              ; preds = %100
  %106 = load i32, ptr %9, align 4, !tbaa !57
  %107 = icmp ne i32 %106, 0
  br i1 %107, label %108, label %121

108:                                              ; preds = %105
  %109 = load ptr, ptr %8, align 8, !tbaa !28
  %110 = getelementptr inbounds nuw %struct.MXFContext, ptr %109, i32 0, i32 22
  %111 = load i32, ptr %110, align 4, !tbaa !291
  %112 = load ptr, ptr %5, align 8, !tbaa !38
  %113 = getelementptr inbounds nuw %struct.AVStream, ptr %112, i32 0, i32 3
  %114 = load ptr, ptr %113, align 8, !tbaa !58
  %115 = getelementptr inbounds nuw %struct.AVCodecParameters, ptr %114, i32 0, i32 24
  %116 = getelementptr inbounds nuw %struct.AVChannelLayout, ptr %115, i32 0, i32 1
  %117 = load i32, ptr %116, align 4, !tbaa !123
  %118 = icmp slt i32 %111, %117
  br i1 %118, label %119, label %121

119:                                              ; preds = %108
  %120 = load ptr, ptr %4, align 8, !tbaa !4
  call void (ptr, i32, ptr, ...) @av_log(ptr noundef %120, i32 noundef 24, ptr noundef @.str.80)
  br label %121

121:                                              ; preds = %119, %108, %105
  %122 = load i32, ptr %9, align 4, !tbaa !57
  %123 = icmp ne i32 %122, 0
  br i1 %123, label %124, label %136

124:                                              ; preds = %121
  %125 = load ptr, ptr %8, align 8, !tbaa !28
  %126 = getelementptr inbounds nuw %struct.MXFContext, ptr %125, i32 0, i32 22
  %127 = load i32, ptr %126, align 4, !tbaa !291
  %128 = icmp ne i32 %127, 4
  br i1 %128, label %129, label %136

129:                                              ; preds = %124
  %130 = load ptr, ptr %8, align 8, !tbaa !28
  %131 = getelementptr inbounds nuw %struct.MXFContext, ptr %130, i32 0, i32 22
  %132 = load i32, ptr %131, align 4, !tbaa !291
  %133 = icmp ne i32 %132, 8
  br i1 %133, label %134, label %136

134:                                              ; preds = %129
  %135 = load ptr, ptr %4, align 8, !tbaa !4
  call void (ptr, i32, ptr, ...) @av_log(ptr noundef %135, i32 noundef 24, ptr noundef @.str.81)
  br label %136

136:                                              ; preds = %134, %129, %124, %121
  %137 = load ptr, ptr %7, align 8, !tbaa !31
  %138 = load ptr, ptr %8, align 8, !tbaa !28
  %139 = getelementptr inbounds nuw %struct.MXFContext, ptr %138, i32 0, i32 22
  %140 = load i32, ptr %139, align 4, !tbaa !291
  call void @avio_wb32(ptr noundef %137, i32 noundef %140)
  br label %149

141:                                              ; preds = %100
  %142 = load ptr, ptr %7, align 8, !tbaa !31
  %143 = load ptr, ptr %5, align 8, !tbaa !38
  %144 = getelementptr inbounds nuw %struct.AVStream, ptr %143, i32 0, i32 3
  %145 = load ptr, ptr %144, align 8, !tbaa !58
  %146 = getelementptr inbounds nuw %struct.AVCodecParameters, ptr %145, i32 0, i32 24
  %147 = getelementptr inbounds nuw %struct.AVChannelLayout, ptr %146, i32 0, i32 1
  %148 = load i32, ptr %147, align 4, !tbaa !123
  call void @avio_wb32(ptr noundef %142, i32 noundef %148)
  br label %149

149:                                              ; preds = %141, %136
  br label %150

150:                                              ; preds = %149, %92
  %151 = load ptr, ptr %4, align 8, !tbaa !4
  call void @mxf_write_local_tag(ptr noundef %151, i32 noundef 4, i32 noundef 15617)
  %152 = load ptr, ptr %7, align 8, !tbaa !31
  %153 = load ptr, ptr %5, align 8, !tbaa !38
  %154 = getelementptr inbounds nuw %struct.AVStream, ptr %153, i32 0, i32 3
  %155 = load ptr, ptr %154, align 8, !tbaa !58
  %156 = getelementptr inbounds nuw %struct.AVCodecParameters, ptr %155, i32 0, i32 1
  %157 = load i32, ptr %156, align 4, !tbaa !59
  %158 = call i32 @av_get_bits_per_sample(i32 noundef %157)
  call void @avio_wb32(ptr noundef %152, i32 noundef %158)
  %159 = load i64, ptr %10, align 8, !tbaa !80
  call void @llvm.lifetime.end.p0(i64 8, ptr %10) #13
  call void @llvm.lifetime.end.p0(i64 4, ptr %9) #13
  call void @llvm.lifetime.end.p0(i64 8, ptr %8) #13
  call void @llvm.lifetime.end.p0(i64 8, ptr %7) #13
  ret i64 %159
}