; Function Attrs: nounwind uwtable
define internal fastcc i64 @mxf_write_generic_sound_common(ptr noundef %0, ptr noundef readonly captures(none) %1, ptr noundef %2) unnamed_addr #0 {
  %4 = getelementptr inbounds nuw i8, ptr %0, i64 32
  %5 = load ptr, ptr %4, align 8, !tbaa !24
  %6 = getelementptr inbounds nuw i8, ptr %0, i64 24
  %7 = load ptr, ptr %6, align 8, !tbaa !4
  %8 = getelementptr inbounds nuw i8, ptr %7, i64 8
  %9 = load i64, ptr %8, align 8, !tbaa !143
  %.not = icmp eq i64 %9, 0
  %10 = tail call fastcc i64 @mxf_write_generic_desc(ptr noundef %0, ptr noundef %1, ptr noundef %2)
  %11 = getelementptr inbounds nuw i8, ptr %0, i64 16
  %12 = load ptr, ptr %11, align 8, !tbaa !44
  %13 = icmp eq ptr %12, @ff_mxf_opatom_muxer
  br i1 %13, label %14, label %21

14:                                               ; preds = %3
  %.val60 = load ptr, ptr %6, align 8, !tbaa !4
  %.val61 = load ptr, ptr %4, align 8, !tbaa !24
  tail call fastcc void @mxf_write_local_tag(ptr %.val60, ptr %.val61, i32 noundef 8, i32 noundef 12290)
  %15 = getelementptr inbounds nuw i8, ptr %7, i64 136
  %16 = load i64, ptr %15, align 8, !tbaa !124
  %17 = getelementptr inbounds nuw i8, ptr %7, i64 124
  %18 = load i32, ptr %17, align 4, !tbaa !46
  %19 = sext i32 %18 to i64
  %20 = udiv i64 %16, %19
  tail call void @avio_wb64(ptr noundef %5, i64 noundef %20) #14
  br label %21

21:                                               ; preds = %14, %3
  %.val58 = load ptr, ptr %6, align 8, !tbaa !4
  %.val59 = load ptr, ptr %4, align 8, !tbaa !24
  tail call fastcc void @mxf_write_local_tag(ptr %.val58, ptr %.val59, i32 noundef 1, i32 noundef 15618)
  tail call void @avio_w8(ptr noundef %5, i32 noundef 1) #14
  %.val56 = load ptr, ptr %6, align 8, !tbaa !4
  %.val57 = load ptr, ptr %4, align 8, !tbaa !24
  tail call fastcc void @mxf_write_local_tag(ptr %.val56, ptr %.val57, i32 noundef 8, i32 noundef 15619)
  %22 = getelementptr inbounds nuw i8, ptr %1, i64 16
  %23 = load ptr, ptr %22, align 8, !tbaa !48
  %24 = getelementptr inbounds nuw i8, ptr %23, i64 152
  %25 = load i32, ptr %24, align 8, !tbaa !199
  tail call void @avio_wb32(ptr noundef %5, i32 noundef %25) #14
  tail call void @avio_wb32(ptr noundef %5, i32 noundef 1) #14
  %26 = load ptr, ptr %11, align 8, !tbaa !44
  %27 = icmp eq ptr %26, @ff_mxf_d10_muxer
  br i1 %27, label %28, label %29

28:                                               ; preds = %21
  %.val54 = load ptr, ptr %6, align 8, !tbaa !4
  %.val55 = load ptr, ptr %4, align 8, !tbaa !24
  tail call fastcc void @mxf_write_local_tag(ptr %.val54, ptr %.val55, i32 noundef 1, i32 noundef 15620)
  tail call void @avio_w8(ptr noundef %5, i32 noundef 0) #14
  br label %29

29:                                               ; preds = %28, %21
  %.val52 = load ptr, ptr %6, align 8, !tbaa !4
  %.val53 = load ptr, ptr %4, align 8, !tbaa !24
  tail call fastcc void @mxf_write_local_tag(ptr %.val52, ptr %.val53, i32 noundef 4, i32 noundef 15623)
  %30 = getelementptr inbounds nuw i8, ptr %7, i64 164
  %31 = load i32, ptr %30, align 4, !tbaa !278
  %32 = icmp eq i32 %31, -1
  br i1 %32, label %33, label %46

33:                                               ; preds = %29
  br i1 %.not, label %34, label %42

34:                                               ; preds = %33
  %35 = load ptr, ptr %11, align 8, !tbaa !44
  %36 = icmp eq ptr %35, @ff_mxf_d10_muxer
  br i1 %36, label %37, label %42

37:                                               ; preds = %34
  %38 = load ptr, ptr %22, align 8, !tbaa !48
  %39 = getelementptr inbounds nuw i8, ptr %38, i64 132
  %40 = load i32, ptr %39, align 4, !tbaa !137
  switch i32 %40, label %41 [
    i32 4, label %42
    i32 8, label %42
  ]

41:                                               ; preds = %37
  tail call void (ptr, i32, ptr, ...) @av_log(ptr noundef nonnull %0, i32 noundef 24, ptr noundef nonnull @.str.79) #14
  br label %42

42:                                               ; preds = %37, %37, %41, %34, %33
  %43 = load ptr, ptr %22, align 8, !tbaa !48
  %44 = getelementptr inbounds nuw i8, ptr %43, i64 132
  %45 = load i32, ptr %44, align 4, !tbaa !137
  br label %.critedge

46:                                               ; preds = %29
  %47 = load ptr, ptr %11, align 8, !tbaa !44
  %48 = icmp eq ptr %47, @ff_mxf_d10_muxer
  br i1 %48, label %49, label %59

49:                                               ; preds = %46
  br i1 %.not, label %50, label %.critedge

50:                                               ; preds = %49
  %51 = load ptr, ptr %22, align 8, !tbaa !48
  %52 = getelementptr inbounds nuw i8, ptr %51, i64 132
  %53 = load i32, ptr %52, align 4, !tbaa !137
  %54 = icmp slt i32 %31, %53
  br i1 %54, label %55, label %56

55:                                               ; preds = %50
  tail call void (ptr, i32, ptr, ...) @av_log(ptr noundef nonnull %0, i32 noundef 24, ptr noundef nonnull @.str.80) #14
  %.pre = load i32, ptr %30, align 4, !tbaa !278
  br label %56

56:                                               ; preds = %50, %55
  %57 = phi i32 [ %31, %50 ], [ %.pre, %55 ]
  switch i32 %57, label %58 [
    i32 4, label %.critedge
    i32 8, label %.critedge
  ]

58:                                               ; preds = %56
  tail call void (ptr, i32, ptr, ...) @av_log(ptr noundef nonnull %0, i32 noundef 24, ptr noundef nonnull @.str.81) #14
  %.pre62 = load i32, ptr %30, align 4, !tbaa !278
  br label %.critedge

59:                                               ; preds = %46
  %60 = load ptr, ptr %22, align 8, !tbaa !48
  %61 = getelementptr inbounds nuw i8, ptr %60, i64 132
  %62 = load i32, ptr %61, align 4, !tbaa !137
  br label %.critedge

.critedge:                                        ; preds = %58, %56, %56, %49, %59, %42
  %.sink = phi i32 [ %62, %59 ], [ %45, %42 ], [ %31, %49 ], [ %57, %56 ], [ %57, %56 ], [ %.pre62, %58 ]
  tail call void @avio_wb32(ptr noundef %5, i32 noundef %.sink) #14
  %.val = load ptr, ptr %6, align 8, !tbaa !4
  %.val51 = load ptr, ptr %4, align 8, !tbaa !24
  tail call fastcc void @mxf_write_local_tag(ptr %.val, ptr %.val51, i32 noundef 4, i32 noundef 15617)
  %63 = load ptr, ptr %22, align 8, !tbaa !48
  %64 = getelementptr inbounds nuw i8, ptr %63, i64 4
  %65 = load i32, ptr %64, align 4, !tbaa !49
  %66 = tail call i32 @av_get_bits_per_sample(i32 noundef %65) #14
  tail call void @avio_wb32(ptr noundef %5, i32 noundef %66) #14
  ret i64 %10
}